target datalayout = "e-m:e-p270:32:32-p271:32:32-p272:64:64-i64:64-i128:128-f80:128-n8:16:32:64-S128"
target triple = "x86_64-pc-linux-gnu"

%struct.FullTransactionId = type { i64 }
%struct.CheckPoint = type { i64, i32, i32, i8, i32, %struct.FullTransactionId, i32, i32, i32, i32, i32, i32, i32, i64, i32, i32, i32 }
%struct.LWLock = type { i16, %struct.pg_atomic_uint32, %struct.proclist_head }
%struct.pg_atomic_uint32 = type { i32 }
%struct.proclist_head = type { i32, i32 }
%union.LWLockPadded = type { %struct.LWLock, [112 x i8] }
%struct.ControlFileData = type { i64, i32, i32, i32, i64, i64, %struct.CheckPoint, i64, i64, i32, i64, i64, i8, i32, i8, i32, i32, i32, i32, i32, i8, i32, double, i32, i32, i32, i32, i32, i32, i32, i32, i8, i32, [32 x i8], i32 }

@.str.14 = private unnamed_addr constant [7 x i8] c"xlog.c\00", align 1
@MainLWLockArray = external global ptr, align 8
@LocalMinRecoveryPoint = internal global i64 0, align 8
@InRecovery = external global i8, align 1
@updateMinRecoveryPoint = internal global i8 1, align 1
@ControlFile = internal global ptr null, align 8
@LocalMinRecoveryPointTLI = internal global i32 0, align 4
@DataDir = external global ptr, align 8
@.str.104 = private unnamed_addr constant [60 x i8] c"xlog min recovery request %X/%X is past current point %X/%X\00", align 1
@__func__.UpdateMinRecoveryPoint = private unnamed_addr constant [23 x i8] c"UpdateMinRecoveryPoint\00", align 1
@.str.105 = private unnamed_addr constant [51 x i8] c"updated min recovery point to %X/%X on timeline %u\00", align 1

; Function Attrs: nounwind uwtable
define internal void @UpdateControlFile() #0 {
  %1 = load ptr, ptr @DataDir, align 8
  %2 = load ptr, ptr @ControlFile, align 8
  call void @update_controlfile(ptr noundef %1, ptr noundef %2, i1 noundef zeroext true)
  ret void
}

; Function Attrs: nounwind uwtable
define internal void @UpdateMinRecoveryPoint(i64 noundef %0, i1 noundef zeroext %1) #0 {
  %3 = alloca i64, align 8
  %4 = alloca i8, align 1
  %5 = alloca i64, align 8
  %6 = alloca i32, align 4
  %7 = alloca i32, align 4
  %8 = alloca i32, align 4
  %9 = alloca i32, align 4
  store i64 %0, ptr %3, align 8
  %10 = zext i1 %1 to i8
  store i8 %10, ptr %4, align 1
  %11 = load i8, ptr @updateMinRecoveryPoint, align 1, !range !4, !noundef !5
  %12 = trunc i8 %11 to i1
  br i1 %12, label %13, label %20

13:                                               ; preds = %2
  %14 = load i8, ptr %4, align 1, !range !4, !noundef !5
  %15 = trunc i8 %14 to i1
  br i1 %15, label %21, label %16

16:                                               ; preds = %13
  %17 = load i64, ptr %3, align 8
  %18 = load i64, ptr @LocalMinRecoveryPoint, align 8
  %19 = icmp ule i64 %17, %18
  br i1 %19, label %20, label %21

20:                                               ; preds = %16, %2
  br label %122

21:                                               ; preds = %16, %13
  %22 = load i64, ptr @LocalMinRecoveryPoint, align 8
  %23 = icmp eq i64 %22, 0
  br i1 %23, label %24, label %28

24:                                               ; preds = %21
  %25 = load i8, ptr @InRecovery, align 1, !range !4, !noundef !5
  %26 = trunc i8 %25 to i1
  br i1 %26, label %27, label %28

27:                                               ; preds = %24
  store i8 0, ptr @updateMinRecoveryPoint, align 1
  br label %122

28:                                               ; preds = %24, %21
  %29 = load ptr, ptr @MainLWLockArray, align 8
  %30 = getelementptr inbounds %union.LWLockPadded, ptr %29, i64 9
  %31 = call zeroext i1 @LWLockAcquire(ptr noundef %30, i32 noundef 0)
  %32 = load ptr, ptr @ControlFile, align 8
  %33 = getelementptr inbounds nuw %struct.ControlFileData, ptr %32, i32 0, i32 8
  %34 = load i64, ptr %33, align 8
  store i64 %34, ptr @LocalMinRecoveryPoint, align 8
  %35 = load ptr, ptr @ControlFile, align 8
  %36 = getelementptr inbounds nuw %struct.ControlFileData, ptr %35, i32 0, i32 9
  %37 = load i32, ptr %36, align 8
  store i32 %37, ptr @LocalMinRecoveryPointTLI, align 4
  %38 = load i64, ptr @LocalMinRecoveryPoint, align 8
  %39 = icmp eq i64 %38, 0
  br i1 %39, label %40, label %41

40:                                               ; preds = %28
  store i8 0, ptr @updateMinRecoveryPoint, align 1
  br label %119

41:                                               ; preds = %28
  %42 = load i8, ptr %4, align 1, !range !4, !noundef !5
  %43 = trunc i8 %42 to i1
  br i1 %43, label %48, label %44

44:                                               ; preds = %41
  %45 = load i64, ptr @LocalMinRecoveryPoint, align 8
  %46 = load i64, ptr %3, align 8
  %47 = icmp ult i64 %45, %46
  br i1 %47, label %48, label %118

48:                                               ; preds = %44, %41
  call void @llvm.lifetime.start.p0(i64 8, ptr %5) #16
  call void @llvm.lifetime.start.p0(i64 4, ptr %6) #16
  %49 = call i64 @GetCurrentReplayRecPtr(ptr noundef %6)
  store i64 %49, ptr %5, align 8
  %50 = load i8, ptr %4, align 1, !range !4, !noundef !5
  %51 = trunc i8 %50 to i1
  br i1 %51, label %83, label %52

52:                                               ; preds = %48
  %53 = load i64, ptr %5, align 8
  %54 = load i64, ptr %3, align 8
  %55 = icmp ult i64 %53, %54
  br i1 %55, label %56, label %83

56:                                               ; preds = %52
  br label %57

57:                                               ; preds = %56
  br i1 false, label %58, label %60

58:                                               ; preds = %57
  %59 = call zeroext i1 @errstart_cold(i32 noundef 19, ptr noundef null) #17
  br i1 %59, label %62, label %80

60:                                               ; preds = %57
  %61 = call zeroext i1 @errstart(i32 noundef 19, ptr noundef null)
  br i1 %61, label %62, label %80

62:                                               ; preds = %60, %58
  br label %63

63:                                               ; preds = %62
  br label %64

64:                                               ; preds = %63
  br label %65

65:                                               ; preds = %64
  store i32 1, ptr %7, align 4
  %66 = load i64, ptr %3, align 8
  %67 = lshr i64 %66, 32
  %68 = trunc i64 %67 to i32
  %69 = load i64, ptr %3, align 8
  %70 = trunc i64 %69 to i32
  br label %71

71:                                               ; preds = %65
  br label %72

72:                                               ; preds = %71
  br label %73

73:                                               ; preds = %72
  store i32 1, ptr %8, align 4
  %74 = load i64, ptr %5, align 8
  %75 = lshr i64 %74, 32
  %76 = trunc i64 %75 to i32
  %77 = load i64, ptr %5, align 8
  %78 = trunc i64 %77 to i32
  %79 = call i32 (ptr, ...) @errmsg_internal(ptr noundef @.str.104, i32 noundef %68, i32 noundef %70, i32 noundef %76, i32 noundef %78)
  call void @errfinish(ptr noundef @.str.14, i32 noundef 2778, ptr noundef @__func__.UpdateMinRecoveryPoint)
  br label %80

80:                                               ; preds = %73, %60, %58
  br label %81

81:                                               ; preds = %80
  br label %82

82:                                               ; preds = %81
  br label %83

83:                                               ; preds = %82, %52, %48
  %84 = load ptr, ptr @ControlFile, align 8
  %85 = getelementptr inbounds nuw %struct.ControlFileData, ptr %84, i32 0, i32 8
  %86 = load i64, ptr %85, align 8
  %87 = load i64, ptr %5, align 8
  %88 = icmp ult i64 %86, %87
  br i1 %88, label %89, label %117

89:                                               ; preds = %83
  %90 = load i64, ptr %5, align 8
  %91 = load ptr, ptr @ControlFile, align 8
  %92 = getelementptr inbounds nuw %struct.ControlFileData, ptr %91, i32 0, i32 8
  store i64 %90, ptr %92, align 8
  %93 = load i32, ptr %6, align 4
  %94 = load ptr, ptr @ControlFile, align 8
  %95 = getelementptr inbounds nuw %struct.ControlFileData, ptr %94, i32 0, i32 9
  store i32 %93, ptr %95, align 8
  call void @UpdateControlFile()
  %96 = load i64, ptr %5, align 8
  store i64 %96, ptr @LocalMinRecoveryPoint, align 8
  %97 = load i32, ptr %6, align 4
  store i32 %97, ptr @LocalMinRecoveryPointTLI, align 4
  br label %98

98:                                               ; preds = %89
  br i1 false, label %99, label %101

99:                                               ; preds = %98
  %100 = call zeroext i1 @errstart_cold(i32 noundef 13, ptr noundef null) #17
  br i1 %100, label %103, label %114

101:                                              ; preds = %98
  %102 = call zeroext i1 @errstart(i32 noundef 13, ptr noundef null)
  br i1 %102, label %103, label %114

103:                                              ; preds = %101, %99
  br label %104

104:                                              ; preds = %103
  br label %105

105:                                              ; preds = %104
  br label %106

106:                                              ; preds = %105
  store i32 1, ptr %9, align 4
  %107 = load i64, ptr %5, align 8
  %108 = lshr i64 %107, 32
  %109 = trunc i64 %108 to i32
  %110 = load i64, ptr %5, align 8
  %111 = trunc i64 %110 to i32
  %112 = load i32, ptr %6, align 4
  %113 = call i32 (ptr, ...) @errmsg_internal(ptr noundef @.str.105, i32 noundef %109, i32 noundef %111, i32 noundef %112)
  call void @errfinish(ptr noundef @.str.14, i32 noundef 2792, ptr noundef @__func__.UpdateMinRecoveryPoint)
  br label %114

114:                                              ; preds = %106, %101, %99
  br label %115

115:                                              ; preds = %114
  br label %116

116:                                              ; preds = %115
  br label %117

117:                                              ; preds = %116, %83
  call void @llvm.lifetime.end.p0(i64 4, ptr %6) #16
  call void @llvm.lifetime.end.p0(i64 8, ptr %5) #16
  br label %118

118:                                              ; preds = %117, %44
  br label %119

119:                                              ; preds = %118, %40
  %120 = load ptr, ptr @MainLWLockArray, align 8
  %121 = getelementptr inbounds %union.LWLockPadded, ptr %120, i64 9
  call void @LWLockRelease(ptr noundef %121)
  br label %122

122:                                              ; preds = %119, %27, %20
  ret void
}