; Function Attrs: nounwind uwtable
define internal fastcc void @UpdateMinRecoveryPoint(i64 noundef %0, i1 noundef zeroext %1) unnamed_addr #0 {
  %3 = alloca i32, align 4
  %.b = load i1, ptr @updateMinRecoveryPoint, align 1
  br i1 %.b, label %56, label %4

4:                                                ; preds = %2
  %5 = load i64, ptr @LocalMinRecoveryPoint, align 8
  %.not = icmp ugt i64 %0, %5
  %or.cond = select i1 %1, i1 true, i1 %.not
  br i1 %or.cond, label %6, label %56

6:                                                ; preds = %4
  %7 = icmp eq i64 %5, 0
  br i1 %7, label %8, label %12

8:                                                ; preds = %6
  %9 = load i8, ptr @InRecovery, align 1, !range !4, !noundef !5
  %10 = trunc nuw i8 %9 to i1
  br i1 %10, label %11, label %12

11:                                               ; preds = %8
  store i1 true, ptr @updateMinRecoveryPoint, align 1
  br label %56

12:                                               ; preds = %8, %6
  %13 = load ptr, ptr @MainLWLockArray, align 8
  %14 = getelementptr inbounds nuw i8, ptr %13, i64 1152
  %15 = tail call zeroext i1 @LWLockAcquire(ptr noundef nonnull %14, i32 noundef 0) #26
  %16 = load ptr, ptr @ControlFile, align 8
  %17 = getelementptr inbounds nuw i8, ptr %16, i64 136
  %18 = load i64, ptr %17, align 8
  store i64 %18, ptr @LocalMinRecoveryPoint, align 8
  %19 = icmp eq i64 %18, 0
  br i1 %19, label %20, label %21

20:                                               ; preds = %12
  store i1 true, ptr @updateMinRecoveryPoint, align 1
  br label %53

21:                                               ; preds = %12
  %22 = icmp ult i64 %18, %0
  %or.cond18 = or i1 %1, %22
  br i1 %or.cond18, label %23, label %53

23:                                               ; preds = %21
  call void @llvm.lifetime.start.p0(i64 4, ptr nonnull %3) #26
  %24 = call i64 @GetCurrentReplayRecPtr(ptr noundef nonnull %3) #26
  %25 = icmp uge i64 %24, %0
  %or.cond20.not = select i1 %1, i1 true, i1 %25
  br i1 %or.cond20.not, label %36, label %26

26:                                               ; preds = %23
  %27 = call zeroext i1 @errstart(i32 noundef 19, ptr noundef null) #26
  br i1 %27, label %28, label %36

28:                                               ; preds = %26
  %29 = lshr i64 %0, 32
  %30 = trunc nuw i64 %29 to i32
  %31 = trunc i64 %0 to i32
  %32 = lshr i64 %24, 32
  %33 = trunc nuw i64 %32 to i32
  %34 = trunc i64 %24 to i32
  %35 = call i32 (ptr, ...) @errmsg_internal(ptr noundef nonnull @.str.104, i32 noundef %30, i32 noundef %31, i32 noundef %33, i32 noundef %34) #26
  call void @errfinish(ptr noundef nonnull @.str.14, i32 noundef 2778, ptr noundef nonnull @__func__.UpdateMinRecoveryPoint) #26
  br label %36

36:                                               ; preds = %26, %28, %23
  %37 = load ptr, ptr @ControlFile, align 8
  %38 = getelementptr inbounds nuw i8, ptr %37, i64 136
  %39 = load i64, ptr %38, align 8
  %40 = icmp ult i64 %39, %24
  br i1 %40, label %41, label %52

41:                                               ; preds = %36
  store i64 %24, ptr %38, align 8
  %42 = load i32, ptr %3, align 4
  %43 = getelementptr inbounds nuw i8, ptr %37, i64 144
  store i32 %42, ptr %43, align 8
  %44 = load ptr, ptr @DataDir, align 8
  call void @update_controlfile(ptr noundef %44, ptr noundef nonnull %37, i1 noundef zeroext true) #26
  store i64 %24, ptr @LocalMinRecoveryPoint, align 8
  %45 = call zeroext i1 @errstart(i32 noundef 13, ptr noundef null) #26
  br i1 %45, label %46, label %52

46:                                               ; preds = %41
  %47 = lshr i64 %24, 32
  %48 = trunc nuw i64 %47 to i32
  %49 = trunc i64 %24 to i32
  %50 = load i32, ptr %3, align 4
  %51 = call i32 (ptr, ...) @errmsg_internal(ptr noundef nonnull @.str.105, i32 noundef %48, i32 noundef %49, i32 noundef %50) #26
  call void @errfinish(ptr noundef nonnull @.str.14, i32 noundef 2792, ptr noundef nonnull @__func__.UpdateMinRecoveryPoint) #26
  br label %52

52:                                               ; preds = %41, %46, %36
  call void @llvm.lifetime.end.p0(i64 4, ptr nonnull %3) #26
  br label %53

53:                                               ; preds = %21, %52, %20
  %54 = load ptr, ptr @MainLWLockArray, align 8
  %55 = getelementptr inbounds nuw i8, ptr %54, i64 1152
  call void @LWLockRelease(ptr noundef nonnull %55) #26
  br label %56

56:                                               ; preds = %4, %2, %53, %11
  ret void
}